target datalayout = "e-m:e-p270:32:32-p271:32:32-p272:64:64-i64:64-i128:128-f80:128-n8:16:32:64-S128"
target triple = "x86_64-pc-linux-gnu"

%struct.qemu_plugin_u64 = type { ptr, i64 }
%union._GMutex = type { ptr }
%struct._GString = type { ptr, i64, i64 }
%struct.DeviceCounts = type { ptr, i64, %struct.IOCounts, ptr }
%struct.IOCounts = type { i64, i64, i64, i64 }
%struct.IOLocationCounts = type { i64, %struct.IOCounts }

@pattern = internal global i8 0, align 1
@source = internal global i8 0, align 1
@check_match = internal global i8 0, align 1
@matches = internal global ptr null, align 8
@source_pc = internal global %struct.qemu_plugin_u64 zeroinitializer, align 8
@devices = internal global ptr null, align 8
@lock = internal global %union._GMutex zeroinitializer, align 8
@.str.15 = private unnamed_addr constant [26 x i8] c"hwprofile: match @ offset\00", align 1
@.str.16 = private unnamed_addr constant [20 x i8] c"%lx, previous hits\0A\00", align 1

; Function Attrs: inlinehint nounwind sspstrong uwtable
define internal void @g_autoptr_cleanup_gstring_free(ptr noundef %0) #3 {
  %2 = alloca ptr, align 8
  store ptr %0, ptr %2, align 8
  %3 = load ptr, ptr %2, align 8
  %4 = icmp ne ptr %3, null
  br i1 %4, label %5, label %8

5:                                                ; preds = %1
  %6 = load ptr, ptr %2, align 8
  %7 = call ptr @g_string_free(ptr noundef %6, i32 noundef 1)
  br label %8

8:                                                ; preds = %5, %1
  ret void
}

; Function Attrs: inlinehint nounwind sspstrong uwtable
define internal void @glib_autoptr_clear_GString(ptr noundef %0) #3 {
  %2 = alloca ptr, align 8
  store ptr %0, ptr %2, align 8
  %3 = load ptr, ptr %2, align 8
  %4 = icmp ne ptr %3, null
  br i1 %4, label %5, label %7

5:                                                ; preds = %1
  %6 = load ptr, ptr %2, align 8
  call void @g_autoptr_cleanup_gstring_free(ptr noundef %6)
  br label %7

7:                                                ; preds = %5, %1
  ret void
}

; Function Attrs: inlinehint nounwind sspstrong uwtable
define internal void @glib_autoptr_cleanup_GString(ptr noundef %0) #3 {
  %2 = alloca ptr, align 8
  store ptr %0, ptr %2, align 8
  %3 = load ptr, ptr %2, align 8
  %4 = load ptr, ptr %3, align 8
  call void @glib_autoptr_clear_GString(ptr noundef %4)
  ret void
}

; Function Attrs: nounwind sspstrong uwtable
define internal ptr @new_location(ptr noundef %0, i64 noundef %1) #0 {
  %3 = alloca ptr, align 8
  %4 = alloca i64, align 8
  %5 = alloca ptr, align 8
  %6 = alloca i64, align 8
  %7 = alloca i64, align 8
  %8 = alloca ptr, align 8
  %9 = alloca ptr, align 8
  store ptr %0, ptr %3, align 8
  store i64 %1, ptr %4, align 8
  call void @llvm.lifetime.start.p0(i64 8, ptr %5) #9
  call void @llvm.lifetime.start.p0(i64 8, ptr %6) #9
  store i64 1, ptr %6, align 8
  call void @llvm.lifetime.start.p0(i64 8, ptr %7) #9
  store i64 40, ptr %7, align 8
  call void @llvm.lifetime.start.p0(i64 8, ptr %8) #9
  store ptr null, ptr %8, align 8, !annotation !3
  %10 = load i64, ptr %7, align 8
  %11 = icmp eq i64 %10, 1
  br i1 %11, label %12, label %15

12:                                               ; preds = %2
  %13 = load i64, ptr %6, align 8
  %14 = call noalias ptr @g_malloc0(i64 noundef %13) #10
  store ptr %14, ptr %8, align 8
  br label %36

15:                                               ; preds = %2
  %16 = load i64, ptr %6, align 8
  %17 = call i1 @llvm.is.constant.i64(i64 %16)
  br i1 %17, label %18, label %31

18:                                               ; preds = %15
  %19 = load i64, ptr %7, align 8
  %20 = icmp eq i64 %19, 0
  br i1 %20, label %26, label %21

21:                                               ; preds = %18
  %22 = load i64, ptr %6, align 8
  %23 = load i64, ptr %7, align 8
  %24 = udiv i64 -1, %23
  %25 = icmp ule i64 %22, %24
  br i1 %25, label %26, label %31

26:                                               ; preds = %21, %18
  %27 = load i64, ptr %6, align 8
  %28 = load i64, ptr %7, align 8
  %29 = mul i64 %27, %28
  %30 = call noalias ptr @g_malloc0(i64 noundef %29) #10
  store ptr %30, ptr %8, align 8
  br label %35

31:                                               ; preds = %21, %15
  %32 = load i64, ptr %6, align 8
  %33 = load i64, ptr %7, align 8
  %34 = call noalias ptr @g_malloc0_n(i64 noundef %32, i64 noundef %33) #11
  store ptr %34, ptr %8, align 8
  br label %35

35:                                               ; preds = %31, %26
  br label %36

36:                                               ; preds = %35, %12
  %37 = load ptr, ptr %8, align 8
  store ptr %37, ptr %9, align 8
  call void @llvm.lifetime.end.p0(i64 8, ptr %8) #9
  call void @llvm.lifetime.end.p0(i64 8, ptr %7) #9
  call void @llvm.lifetime.end.p0(i64 8, ptr %6) #9
  %38 = load ptr, ptr %9, align 8
  store ptr %38, ptr %5, align 8
  %39 = load i64, ptr %4, align 8
  %40 = load ptr, ptr %5, align 8
  %41 = getelementptr inbounds nuw %struct.IOLocationCounts, ptr %40, i32 0, i32 0
  store i64 %39, ptr %41, align 8
  %42 = load ptr, ptr %3, align 8
  %43 = load ptr, ptr %5, align 8
  %44 = getelementptr inbounds nuw %struct.IOLocationCounts, ptr %43, i32 0, i32 0
  %45 = load ptr, ptr %5, align 8
  %46 = call i32 @g_hash_table_insert(ptr noundef %42, ptr noundef %44, ptr noundef %45)
  %47 = load ptr, ptr %5, align 8
  call void @llvm.lifetime.end.p0(i64 8, ptr %5) #9
  ret ptr %47
}

; Function Attrs: nounwind sspstrong uwtable
define internal void @inc_count(ptr noundef %0, i1 noundef zeroext %1, i32 noundef %2) #0 {
  %4 = alloca ptr, align 8
  %5 = alloca i8, align 1
  %6 = alloca i32, align 4
  store ptr %0, ptr %4, align 8
  %7 = zext i1 %1 to i8
  store i8 %7, ptr %5, align 1
  store i32 %2, ptr %6, align 4
  %8 = load i8, ptr %5, align 1, !range !6, !noundef !7
  %9 = trunc i8 %8 to i1
  br i1 %9, label %10, label %22

10:                                               ; preds = %3
  %11 = load ptr, ptr %4, align 8
  %12 = getelementptr inbounds nuw %struct.IOCounts, ptr %11, i32 0, i32 3
  %13 = load i64, ptr %12, align 8
  %14 = add i64 %13, 1
  store i64 %14, ptr %12, align 8
  %15 = load i32, ptr %6, align 4
  %16 = shl i32 1, %15
  %17 = sext i32 %16 to i64
  %18 = load ptr, ptr %4, align 8
  %19 = getelementptr inbounds nuw %struct.IOCounts, ptr %18, i32 0, i32 1
  %20 = load i64, ptr %19, align 8
  %21 = or i64 %20, %17
  store i64 %21, ptr %19, align 8
  br label %34

22:                                               ; preds = %3
  %23 = load ptr, ptr %4, align 8
  %24 = getelementptr inbounds nuw %struct.IOCounts, ptr %23, i32 0, i32 2
  %25 = load i64, ptr %24, align 8
  %26 = add i64 %25, 1
  store i64 %26, ptr %24, align 8
  %27 = load i32, ptr %6, align 4
  %28 = shl i32 1, %27
  %29 = sext i32 %28 to i64
  %30 = load ptr, ptr %4, align 8
  %31 = getelementptr inbounds nuw %struct.IOCounts, ptr %30, i32 0, i32 0
  %32 = load i64, ptr %31, align 8
  %33 = or i64 %32, %29
  store i64 %33, ptr %31, align 8
  br label %34

34:                                               ; preds = %22, %10
  ret void
}

; Function Attrs: nounwind sspstrong uwtable
define internal void @hwprofile_match_hit(ptr noundef %0, i64 noundef %1) #0 {
  %3 = alloca ptr, align 8
  %4 = alloca i64, align 8
  %5 = alloca ptr, align 8
  store ptr %0, ptr %3, align 8
  store i64 %1, ptr %4, align 8
  call void @llvm.lifetime.start.p0(i64 8, ptr %5) #9
  %6 = call ptr @g_string_new(ptr noundef @.str.15)
  store ptr %6, ptr %5, align 8
  %7 = load ptr, ptr %5, align 8
  %8 = load i64, ptr %4, align 8
  call void (ptr, ptr, ...) @g_string_append_printf(ptr noundef %7, ptr noundef @.str.16, i64 noundef %8)
  %9 = load ptr, ptr %5, align 8
  %10 = load ptr, ptr %3, align 8
  call void @fmt_dev_record(ptr noundef %9, ptr noundef %10)
  %11 = load ptr, ptr %5, align 8
  %12 = getelementptr inbounds nuw %struct._GString, ptr %11, i32 0, i32 0
  %13 = load ptr, ptr %12, align 8
  call void @qemu_plugin_outs(ptr noundef %13)
  call void @glib_autoptr_cleanup_GString(ptr noundef %5)
  call void @llvm.lifetime.end.p0(i64 8, ptr %5) #9
  ret void
}

; Function Attrs: nounwind sspstrong uwtable
define internal ptr @new_count(ptr noundef %0, i64 noundef %1) #0 {
  %3 = alloca ptr, align 8
  %4 = alloca i64, align 8
  %5 = alloca ptr, align 8
  %6 = alloca i64, align 8
  %7 = alloca i64, align 8
  %8 = alloca ptr, align 8
  %9 = alloca ptr, align 8
  store ptr %0, ptr %3, align 8
  store i64 %1, ptr %4, align 8
  call void @llvm.lifetime.start.p0(i64 8, ptr %5) #9
  call void @llvm.lifetime.start.p0(i64 8, ptr %6) #9
  store i64 1, ptr %6, align 8
  call void @llvm.lifetime.start.p0(i64 8, ptr %7) #9
  store i64 56, ptr %7, align 8
  call void @llvm.lifetime.start.p0(i64 8, ptr %8) #9
  store ptr null, ptr %8, align 8, !annotation !3
  %10 = load i64, ptr %7, align 8
  %11 = icmp eq i64 %10, 1
  br i1 %11, label %12, label %15

12:                                               ; preds = %2
  %13 = load i64, ptr %6, align 8
  %14 = call noalias ptr @g_malloc0(i64 noundef %13) #10
  store ptr %14, ptr %8, align 8
  br label %36

15:                                               ; preds = %2
  %16 = load i64, ptr %6, align 8
  %17 = call i1 @llvm.is.constant.i64(i64 %16)
  br i1 %17, label %18, label %31

18:                                               ; preds = %15
  %19 = load i64, ptr %7, align 8
  %20 = icmp eq i64 %19, 0
  br i1 %20, label %26, label %21

21:                                               ; preds = %18
  %22 = load i64, ptr %6, align 8
  %23 = load i64, ptr %7, align 8
  %24 = udiv i64 -1, %23
  %25 = icmp ule i64 %22, %24
  br i1 %25, label %26, label %31

26:                                               ; preds = %21, %18
  %27 = load i64, ptr %6, align 8
  %28 = load i64, ptr %7, align 8
  %29 = mul i64 %27, %28
  %30 = call noalias ptr @g_malloc0(i64 noundef %29) #10
  store ptr %30, ptr %8, align 8
  br label %35

31:                                               ; preds = %21, %15
  %32 = load i64, ptr %6, align 8
  %33 = load i64, ptr %7, align 8
  %34 = call noalias ptr @g_malloc0_n(i64 noundef %32, i64 noundef %33) #11
  store ptr %34, ptr %8, align 8
  br label %35

35:                                               ; preds = %31, %26
  br label %36

36:                                               ; preds = %35, %12
  %37 = load ptr, ptr %8, align 8
  store ptr %37, ptr %9, align 8
  call void @llvm.lifetime.end.p0(i64 8, ptr %8) #9
  call void @llvm.lifetime.end.p0(i64 8, ptr %7) #9
  call void @llvm.lifetime.end.p0(i64 8, ptr %6) #9
  %38 = load ptr, ptr %9, align 8
  store ptr %38, ptr %5, align 8
  %39 = load ptr, ptr %3, align 8
  %40 = load ptr, ptr %5, align 8
  %41 = getelementptr inbounds nuw %struct.DeviceCounts, ptr %40, i32 0, i32 0
  store ptr %39, ptr %41, align 8
  %42 = load i64, ptr %4, align 8
  %43 = load ptr, ptr %5, align 8
  %44 = getelementptr inbounds nuw %struct.DeviceCounts, ptr %43, i32 0, i32 1
  store i64 %42, ptr %44, align 8
  %45 = load i8, ptr @pattern, align 1, !range !6, !noundef !7
  %46 = trunc i8 %45 to i1
  br i1 %46, label %50, label %47

47:                                               ; preds = %36
  %48 = load i8, ptr @source, align 1, !range !6, !noundef !7
  %49 = trunc i8 %48 to i1
  br i1 %49, label %50, label %54

50:                                               ; preds = %47, %36
  %51 = call ptr @g_hash_table_new(ptr noundef @g_int64_hash, ptr noundef @g_int64_equal)
  %52 = load ptr, ptr %5, align 8
  %53 = getelementptr inbounds nuw %struct.DeviceCounts, ptr %52, i32 0, i32 3
  store ptr %51, ptr %53, align 8
  br label %54

54:                                               ; preds = %50, %47
  %55 = load ptr, ptr @devices, align 8
  %56 = load ptr, ptr %3, align 8
  %57 = load ptr, ptr %5, align 8
  %58 = call i32 @g_hash_table_insert(ptr noundef %55, ptr noundef %56, ptr noundef %57)
  %59 = load ptr, ptr %5, align 8
  call void @llvm.lifetime.end.p0(i64 8, ptr %5) #9
  ret ptr %59
}

; Function Attrs: nounwind sspstrong uwtable
define internal void @vcpu_haddr(i32 noundef %0, i32 noundef %1, i64 noundef %2, ptr noundef %3) #0 {
  %5 = alloca i32, align 4
  %6 = alloca i32, align 4
  %7 = alloca i64, align 8
  %8 = alloca ptr, align 8
  %9 = alloca ptr, align 8
  %10 = alloca i32, align 4
  %11 = alloca ptr, align 8
  %12 = alloca i64, align 8
  %13 = alloca i8, align 1
  %14 = alloca ptr, align 8
  %15 = alloca i64, align 8
  %16 = alloca ptr, align 8
  store i32 %0, ptr %5, align 4
  store i32 %1, ptr %6, align 4
  store i64 %2, ptr %7, align 8
  store ptr %3, ptr %8, align 8
  call void @llvm.lifetime.start.p0(i64 8, ptr %9) #9
  %17 = load i32, ptr %6, align 4
  %18 = load i64, ptr %7, align 8
  %19 = call ptr @qemu_plugin_get_hwaddr(i32 noundef %17, i64 noundef %18)
  store ptr %19, ptr %9, align 8
  %20 = load ptr, ptr %9, align 8
  %21 = icmp ne ptr %20, null
  br i1 %21, label %22, label %25

22:                                               ; preds = %4
  %23 = load ptr, ptr %9, align 8
  %24 = call zeroext i1 @qemu_plugin_hwaddr_is_io(ptr noundef %23)
  br i1 %24, label %26, label %25

25:                                               ; preds = %22, %4
  store i32 1, ptr %10, align 4
  br label %106

26:                                               ; preds = %22
  call void @llvm.lifetime.start.p0(i64 8, ptr %11) #9
  %27 = load ptr, ptr %9, align 8
  %28 = call ptr @qemu_plugin_hwaddr_device_name(ptr noundef %27)
  store ptr %28, ptr %11, align 8
  call void @llvm.lifetime.start.p0(i64 8, ptr %12) #9
  %29 = load ptr, ptr %9, align 8
  %30 = call i64 @qemu_plugin_hwaddr_phys_addr(ptr noundef %29)
  store i64 %30, ptr %12, align 8
  call void @llvm.lifetime.start.p0(i64 1, ptr %13) #9
  %31 = load i32, ptr %6, align 4
  %32 = call zeroext i1 @qemu_plugin_mem_is_store(i32 noundef %31)
  %33 = zext i1 %32 to i8
  store i8 %33, ptr %13, align 1
  call void @llvm.lifetime.start.p0(i64 8, ptr %14) #9
  store ptr null, ptr %14, align 8, !annotation !3
  call void @g_mutex_lock(ptr noundef @lock)
  %34 = load ptr, ptr @devices, align 8
  %35 = load ptr, ptr %11, align 8
  %36 = call ptr @g_hash_table_lookup(ptr noundef %34, ptr noundef %35)
  store ptr %36, ptr %14, align 8
  %37 = load ptr, ptr %14, align 8
  %38 = icmp ne ptr %37, null
  br i1 %38, label %46, label %39

39:                                               ; preds = %26
  call void @llvm.lifetime.start.p0(i64 8, ptr %15) #9
  %40 = load i64, ptr %7, align 8
  %41 = load i64, ptr %12, align 8
  %42 = sub i64 %40, %41
  store i64 %42, ptr %15, align 8
  %43 = load ptr, ptr %11, align 8
  %44 = load i64, ptr %15, align 8
  %45 = call ptr @new_count(ptr noundef %43, i64 noundef %44)
  store ptr %45, ptr %14, align 8
  call void @llvm.lifetime.end.p0(i64 8, ptr %15) #9
  br label %46

46:                                               ; preds = %39, %26
  %47 = load i8, ptr @check_match, align 1, !range !6, !noundef !7
  %48 = trunc i8 %47 to i1
  br i1 %48, label %49, label %65

49:                                               ; preds = %46
  %50 = load ptr, ptr @matches, align 8
  %51 = load ptr, ptr %14, align 8
  %52 = getelementptr inbounds nuw %struct.DeviceCounts, ptr %51, i32 0, i32 0
  %53 = load ptr, ptr %52, align 8
  %54 = call i32 @g_strv_contains(ptr noundef %50, ptr noundef %53)
  %55 = icmp ne i32 %54, 0
  br i1 %55, label %56, label %64

56:                                               ; preds = %49
  %57 = load ptr, ptr %14, align 8
  %58 = load i64, ptr %12, align 8
  call void @hwprofile_match_hit(ptr noundef %57, i64 noundef %58)
  %59 = load ptr, ptr %14, align 8
  %60 = getelementptr inbounds nuw %struct.DeviceCounts, ptr %59, i32 0, i32 2
  %61 = load i8, ptr %13, align 1, !range !6, !noundef !7
  %62 = trunc i8 %61 to i1
  %63 = load i32, ptr %5, align 4
  call void @inc_count(ptr noundef %60, i1 noundef zeroext %62, i32 noundef %63)
  br label %64

64:                                               ; preds = %56, %49
  br label %71

65:                                               ; preds = %46
  %66 = load ptr, ptr %14, align 8
  %67 = getelementptr inbounds nuw %struct.DeviceCounts, ptr %66, i32 0, i32 2
  %68 = load i8, ptr %13, align 1, !range !6, !noundef !7
  %69 = trunc i8 %68 to i1
  %70 = load i32, ptr %5, align 4
  call void @inc_count(ptr noundef %67, i1 noundef zeroext %69, i32 noundef %70)
  br label %71

71:                                               ; preds = %65, %64
  %72 = load i8, ptr @source, align 1, !range !6, !noundef !7
  %73 = trunc i8 %72 to i1
  br i1 %73, label %74, label %79

74:                                               ; preds = %71
  %75 = load i32, ptr %5, align 4
  %76 = load ptr, ptr @source_pc, align 8
  %77 = load i64, ptr getelementptr inbounds nuw ({ ptr, i64 }, ptr @source_pc, i32 0, i32 1), align 8
  %78 = call i64 @qemu_plugin_u64_get(ptr %76, i64 %77, i32 noundef %75)
  store i64 %78, ptr %12, align 8
  br label %79

79:                                               ; preds = %74, %71
  %80 = load i8, ptr @pattern, align 1, !range !6, !noundef !7
  %81 = trunc i8 %80 to i1
  br i1 %81, label %85, label %82

82:                                               ; preds = %79
  %83 = load i8, ptr @source, align 1, !range !6, !noundef !7
  %84 = trunc i8 %83 to i1
  br i1 %84, label %85, label %104

85:                                               ; preds = %82, %79
  call void @llvm.lifetime.start.p0(i64 8, ptr %16) #9
  %86 = load ptr, ptr %14, align 8
  %87 = getelementptr inbounds nuw %struct.DeviceCounts, ptr %86, i32 0, i32 3
  %88 = load ptr, ptr %87, align 8
  %89 = call ptr @g_hash_table_lookup(ptr noundef %88, ptr noundef %12)
  store ptr %89, ptr %16, align 8
  %90 = load ptr, ptr %16, align 8
  %91 = icmp ne ptr %90, null
  br i1 %91, label %98, label %92

92:                                               ; preds = %85
  %93 = load ptr, ptr %14, align 8
  %94 = getelementptr inbounds nuw %struct.DeviceCounts, ptr %93, i32 0, i32 3
  %95 = load ptr, ptr %94, align 8
  %96 = load i64, ptr %12, align 8
  %97 = call ptr @new_location(ptr noundef %95, i64 noundef %96)
  store ptr %97, ptr %16, align 8
  br label %98

98:                                               ; preds = %92, %85
  %99 = load ptr, ptr %16, align 8
  %100 = getelementptr inbounds nuw %struct.IOLocationCounts, ptr %99, i32 0, i32 1
  %101 = load i8, ptr %13, align 1, !range !6, !noundef !7
  %102 = trunc i8 %101 to i1
  %103 = load i32, ptr %5, align 4
  call void @inc_count(ptr noundef %100, i1 noundef zeroext %102, i32 noundef %103)
  call void @llvm.lifetime.end.p0(i64 8, ptr %16) #9
  br label %104

104:                                              ; preds = %98, %82
  call void @g_mutex_unlock(ptr noundef @lock)
  call void @llvm.lifetime.end.p0(i64 8, ptr %14) #9
  call void @llvm.lifetime.end.p0(i64 1, ptr %13) #9
  call void @llvm.lifetime.end.p0(i64 8, ptr %12) #9
  call void @llvm.lifetime.end.p0(i64 8, ptr %11) #9
  br label %105

105:                                              ; preds = %104
  store i32 0, ptr %10, align 4
  br label %106

106:                                              ; preds = %105, %25
  call void @llvm.lifetime.end.p0(i64 8, ptr %9) #9
  %107 = load i32, ptr %10, align 4
  switch i32 %107, label %109 [
    i32 0, label %108
    i32 1, label %108
  ]

108:                                              ; preds = %106, %106
  ret void

109:                                              ; preds = %106
  unreachable
}