; Function Attrs: nounwind sspstrong uwtable
define internal void @vcpu_haddr(i32 noundef %0, i32 noundef %1, i64 noundef %2, ptr readnone captures(none) %3) #0 {
  %5 = alloca i64, align 8
  %6 = tail call ptr @qemu_plugin_get_hwaddr(i32 noundef %1, i64 noundef %2) #7
  %.not = icmp eq ptr %6, null
  br i1 %.not, label %108, label %7

7:                                                ; preds = %4
  %8 = tail call zeroext i1 @qemu_plugin_hwaddr_is_io(ptr noundef nonnull %6) #7
  br i1 %8, label %9, label %108

9:                                                ; preds = %7
  %10 = tail call ptr @qemu_plugin_hwaddr_device_name(ptr noundef nonnull %6) #7
  call void @llvm.lifetime.start.p0(i64 8, ptr nonnull %5) #7
  %11 = tail call i64 @qemu_plugin_hwaddr_phys_addr(ptr noundef nonnull %6) #7
  store i64 %11, ptr %5, align 8
  %12 = tail call zeroext i1 @qemu_plugin_mem_is_store(i32 noundef %1) #7
  tail call void @g_mutex_lock(ptr noundef nonnull @lock) #7
  %13 = load ptr, ptr @devices, align 8
  %14 = tail call ptr @g_hash_table_lookup(ptr noundef %13, ptr noundef %10) #7
  %.not30 = icmp eq ptr %14, null
  br i1 %.not30, label %15, label %29

15:                                               ; preds = %9
  %16 = sub i64 %2, %11
  %17 = tail call noalias dereferenceable_or_null(56) ptr @g_malloc0(i64 noundef 56) #10
  store ptr %10, ptr %17, align 8
  %18 = getelementptr inbounds nuw i8, ptr %17, i64 8
  store i64 %16, ptr %18, align 8
  %19 = load i8, ptr @pattern, align 1, !range !5, !noundef !6
  %20 = trunc nuw i8 %19 to i1
  br i1 %20, label %24, label %21

21:                                               ; preds = %15
  %22 = load i8, ptr @source, align 1, !range !5, !noundef !6
  %23 = trunc nuw i8 %22 to i1
  br i1 %23, label %24, label %new_count.exit

24:                                               ; preds = %21, %15
  %25 = tail call ptr @g_hash_table_new(ptr noundef nonnull @g_int64_hash, ptr noundef nonnull @g_int64_equal) #7
  %26 = getelementptr inbounds nuw i8, ptr %17, i64 48
  store ptr %25, ptr %26, align 8
  br label %new_count.exit

new_count.exit:                                   ; preds = %21, %24
  %27 = load ptr, ptr @devices, align 8
  %28 = tail call i32 @g_hash_table_insert(ptr noundef %27, ptr noundef %10, ptr noundef nonnull %17) #7
  br label %29

29:                                               ; preds = %new_count.exit, %9
  %.026 = phi ptr [ %14, %9 ], [ %17, %new_count.exit ]
  %.b31 = load i1, ptr @check_match, align 1
  br i1 %.b31, label %30, label %54

30:                                               ; preds = %29
  %31 = load ptr, ptr @matches, align 8
  %32 = load ptr, ptr %.026, align 8
  %33 = tail call i32 @g_strv_contains(ptr noundef %31, ptr noundef %32) #7
  %.not32 = icmp eq i32 %33, 0
  br i1 %.not32, label %inc_count.exit, label %34

34:                                               ; preds = %30
  %35 = tail call ptr @g_string_new(ptr noundef nonnull @.str.15) #7
  tail call void (ptr, ptr, ...) @g_string_append_printf(ptr noundef %35, ptr noundef nonnull @.str.16, i64 noundef %11) #7
  tail call fastcc void @fmt_dev_record(ptr noundef %35, ptr noundef nonnull readonly %.026)
  %36 = load ptr, ptr %35, align 8
  tail call void @qemu_plugin_outs(ptr noundef %36) #7
  %37 = tail call ptr @g_string_free(ptr noundef nonnull %35, i32 noundef 1) #7
  %38 = shl nuw i32 1, %0
  %39 = sext i32 %38 to i64
  br i1 %12, label %40, label %47

40:                                               ; preds = %34
  %41 = getelementptr inbounds nuw i8, ptr %.026, i64 40
  %42 = load i64, ptr %41, align 8
  %43 = add i64 %42, 1
  store i64 %43, ptr %41, align 8
  %44 = getelementptr inbounds nuw i8, ptr %.026, i64 24
  %45 = load i64, ptr %44, align 8
  %46 = or i64 %45, %39
  store i64 %46, ptr %44, align 8
  br label %inc_count.exit

47:                                               ; preds = %34
  %48 = getelementptr inbounds nuw i8, ptr %.026, i64 16
  %49 = getelementptr inbounds nuw i8, ptr %.026, i64 32
  %50 = load i64, ptr %49, align 8
  %51 = add i64 %50, 1
  store i64 %51, ptr %49, align 8
  %52 = load i64, ptr %48, align 8
  %53 = or i64 %52, %39
  store i64 %53, ptr %48, align 8
  br label %inc_count.exit

54:                                               ; preds = %29
  %55 = shl nuw i32 1, %0
  %56 = sext i32 %55 to i64
  br i1 %12, label %57, label %64

57:                                               ; preds = %54
  %58 = getelementptr inbounds nuw i8, ptr %.026, i64 40
  %59 = load i64, ptr %58, align 8
  %60 = add i64 %59, 1
  store i64 %60, ptr %58, align 8
  %61 = getelementptr inbounds nuw i8, ptr %.026, i64 24
  %62 = load i64, ptr %61, align 8
  %63 = or i64 %62, %56
  store i64 %63, ptr %61, align 8
  br label %inc_count.exit

64:                                               ; preds = %54
  %65 = getelementptr inbounds nuw i8, ptr %.026, i64 16
  %66 = getelementptr inbounds nuw i8, ptr %.026, i64 32
  %67 = load i64, ptr %66, align 8
  %68 = add i64 %67, 1
  store i64 %68, ptr %66, align 8
  %69 = load i64, ptr %65, align 8
  %70 = or i64 %69, %56
  store i64 %70, ptr %65, align 8
  br label %inc_count.exit

inc_count.exit:                                   ; preds = %64, %57, %47, %40, %30
  %71 = load i8, ptr @source, align 1, !range !5, !noundef !6
  %72 = trunc nuw i8 %71 to i1
  br i1 %72, label %73, label %76

73:                                               ; preds = %inc_count.exit
  %74 = load ptr, ptr @source_pc.0, align 8
  %75 = tail call i64 @qemu_plugin_u64_get(ptr %74, i64 0, i32 noundef %0) #7
  store i64 %75, ptr %5, align 8
  br label %76

76:                                               ; preds = %73, %inc_count.exit
  %77 = load i8, ptr @pattern, align 1, !range !5, !noundef !6
  %78 = trunc nuw i8 %77 to i1
  br i1 %78, label %82, label %79

79:                                               ; preds = %76
  %80 = load i8, ptr @source, align 1, !range !5, !noundef !6
  %81 = trunc nuw i8 %80 to i1
  br i1 %81, label %82, label %inc_count.exit35

82:                                               ; preds = %79, %76
  %83 = getelementptr inbounds nuw i8, ptr %.026, i64 48
  %84 = load ptr, ptr %83, align 8
  %85 = call ptr @g_hash_table_lookup(ptr noundef %84, ptr noundef nonnull %5) #7
  %.not33 = icmp eq ptr %85, null
  br i1 %.not33, label %86, label %91

86:                                               ; preds = %82
  %87 = load ptr, ptr %83, align 8
  %88 = load i64, ptr %5, align 8
  %89 = call noalias dereferenceable_or_null(40) ptr @g_malloc0(i64 noundef 40) #10
  store i64 %88, ptr %89, align 8
  %90 = call i32 @g_hash_table_insert(ptr noundef %87, ptr noundef nonnull %89, ptr noundef nonnull %89) #7
  br label %91

91:                                               ; preds = %86, %82
  %.0 = phi ptr [ %85, %82 ], [ %89, %86 ]
  %92 = shl nuw i32 1, %0
  %93 = sext i32 %92 to i64
  br i1 %12, label %94, label %101

94:                                               ; preds = %91
  %95 = getelementptr inbounds nuw i8, ptr %.0, i64 32
  %96 = load i64, ptr %95, align 8
  %97 = add i64 %96, 1
  store i64 %97, ptr %95, align 8
  %98 = getelementptr inbounds nuw i8, ptr %.0, i64 16
  %99 = load i64, ptr %98, align 8
  %100 = or i64 %99, %93
  store i64 %100, ptr %98, align 8
  br label %inc_count.exit35

101:                                              ; preds = %91
  %102 = getelementptr inbounds nuw i8, ptr %.0, i64 8
  %103 = getelementptr inbounds nuw i8, ptr %.0, i64 24
  %104 = load i64, ptr %103, align 8
  %105 = add i64 %104, 1
  store i64 %105, ptr %103, align 8
  %106 = load i64, ptr %102, align 8
  %107 = or i64 %106, %93
  store i64 %107, ptr %102, align 8
  br label %inc_count.exit35

inc_count.exit35:                                 ; preds = %101, %94, %79
  call void @g_mutex_unlock(ptr noundef nonnull @lock) #7
  call void @llvm.lifetime.end.p0(i64 8, ptr nonnull %5) #7
  br label %108

108:                                              ; preds = %4, %7, %inc_count.exit35
  ret void
}